target datalayout = "e-m:e-p270:32:32-p271:32:32-p272:64:64-i64:64-i128:128-f80:128-n8:16:32:64-S128"
target triple = "x86_64-pc-linux-gnu"

%"class.base::StatisticsRecorder" = type <{ %"class.std::unique_ptr", %"class.std::unique_ptr.5", %"class.std::unique_ptr.13", i8, [7 x i8] }>
%"class.std::unique_ptr" = type { %"struct.std::__uniq_ptr_data" }
%"struct.std::__uniq_ptr_data" = type { %"class.std::__uniq_ptr_impl" }
%"class.std::__uniq_ptr_impl" = type { %"class.std::tuple" }
%"class.std::tuple" = type { %"struct.std::_Tuple_impl" }
%"struct.std::_Tuple_impl" = type { %"struct.std::_Head_base.4" }
%"struct.std::_Head_base.4" = type { ptr }
%"class.std::unique_ptr.5" = type { %"struct.std::__uniq_ptr_data.6" }
%"struct.std::__uniq_ptr_data.6" = type { %"class.std::__uniq_ptr_impl.7" }
%"class.std::__uniq_ptr_impl.7" = type { %"class.std::tuple.8" }
%"class.std::tuple.8" = type { %"struct.std::_Tuple_impl.9" }
%"struct.std::_Tuple_impl.9" = type { %"struct.std::_Head_base.12" }
%"struct.std::_Head_base.12" = type { ptr }
%"class.std::unique_ptr.13" = type { %"struct.std::__uniq_ptr_data.14" }
%"struct.std::__uniq_ptr_data.14" = type { %"class.std::__uniq_ptr_impl.15" }
%"class.std::__uniq_ptr_impl.15" = type { %"class.std::tuple.16" }
%"class.std::tuple.16" = type { %"struct.std::_Tuple_impl.17" }
%"struct.std::_Tuple_impl.17" = type { %"struct.std::_Head_base.20" }
%"struct.std::_Head_base.20" = type { ptr }

@.str = private unnamed_addr constant [133 x i8] c"generated/home/dtcxzyw/WorkSpace/Projects/compilers/llvm-opt-benchmark/bench/libquic/libquic/src/base/metrics/statistics_recorder.cc\00", align 1

; Function Attrs: mustprogress uwtable
define linkonce_odr noundef i32 @_ZN7logging12GetVlogLevelILm133EEEiRAT__Kc(ptr noundef nonnull align 1 dereferenceable(133) %0) #0 comdat {
  %2 = alloca ptr, align 8
  store ptr %0, ptr %2, align 8, !tbaa !77
  %3 = load ptr, ptr %2, align 8, !tbaa !77
  %4 = getelementptr inbounds [133 x i8], ptr %3, i64 0, i64 0
  %5 = call noundef i32 @_ZN7logging18GetVlogLevelHelperEPKcm(ptr noundef %4, i64 noundef 133)
  ret i32 %5
}

; Function Attrs: mustprogress uwtable
define void @_ZN4base18StatisticsRecorder28InitLogOnShutdownWithoutLockEv(ptr noundef nonnull align 8 dereferenceable(25) %0) #0 align 2 {
  %2 = alloca ptr, align 8
  store ptr %0, ptr %2, align 8, !tbaa !39
  %3 = load ptr, ptr %2, align 8
  %4 = getelementptr inbounds nuw %"class.base::StatisticsRecorder", ptr %3, i32 0, i32 3
  %5 = load i8, ptr %4, align 8, !tbaa !149, !range !15, !noundef !16
  %6 = trunc i8 %5 to i1
  br i1 %6, label %12, label %7

7:                                                ; preds = %1
  %8 = call noundef i32 @_ZN7logging12GetVlogLevelILm133EEEiRAT__Kc(ptr noundef nonnull align 1 dereferenceable(133) @.str)
  %9 = icmp sle i32 1, %8
  br i1 %9, label %10, label %12

10:                                               ; preds = %7
  %11 = getelementptr inbounds nuw %"class.base::StatisticsRecorder", ptr %3, i32 0, i32 3
  store i8 1, ptr %11, align 8, !tbaa !149
  call void @_ZN4base13AtExitManager16RegisterCallbackEPFvPvES1_(ptr noundef @_ZN4base18StatisticsRecorder20DumpHistogramsToVlogEPv, ptr noundef %3)
  br label %12

12:                                               ; preds = %10, %7, %1
  ret void
}