; Function Attrs: mustprogress uwtable
define void @_ZN4base18StatisticsRecorder28InitLogOnShutdownWithoutLockEv(ptr noundef nonnull align 8 dereferenceable(25) %0) local_unnamed_addr #0 align 2 {
  %2 = getelementptr inbounds nuw i8, ptr %0, i64 24
  %3 = load i8, ptr %2, align 8, !tbaa !104, !range !21, !noundef !25
  %4 = trunc nuw i8 %3 to i1
  br i1 %4, label %9, label %5

5:                                                ; preds = %1
  %6 = tail call noundef i32 @_ZN7logging18GetVlogLevelHelperEPKcm(ptr noundef nonnull @.str, i64 noundef 133)
  %7 = icmp sgt i32 %6, 0
  br i1 %7, label %8, label %9

8:                                                ; preds = %5
  store i8 1, ptr %2, align 8, !tbaa !104
  tail call void @_ZN4base13AtExitManager16RegisterCallbackEPFvPvES1_(ptr noundef nonnull @_ZN4base18StatisticsRecorder20DumpHistogramsToVlogEPv, ptr noundef nonnull %0)
  br label %9

9:                                                ; preds = %8, %5, %1
  ret void
}